target datalayout = "e-m:e-p270:32:32-p271:32:32-p272:64:64-i64:64-i128:128-f80:128-n8:16:32:64-S128"
target triple = "x86_64-unknown-linux-gnu"

%"class.facebook::velox::crypto::MD5Context" = type { [4 x i32], [2 x i32], [64 x i8] }

; Function Attrs: mustprogress nounwind uwtable
define internal void @_ZN8facebook5velox6cryptoL11ByteReverseEPhj(ptr noundef %buf, i32 noundef %longs) #0 {
entry:
  %buf.addr = alloca ptr, align 8
  %longs.addr = alloca i32, align 4
  %t = alloca i32, align 4
  store ptr %buf, ptr %buf.addr, align 8
  store i32 %longs, ptr %longs.addr, align 4
  br label %do.body

do.body:                                          ; preds = %do.cond, %entry
  %0 = load ptr, ptr %buf.addr, align 8
  %arrayidx = getelementptr inbounds i8, ptr %0, i64 3
  %1 = load i8, ptr %arrayidx, align 1
  %conv = zext i8 %1 to i32
  %shl = shl i32 %conv, 8
  %2 = load ptr, ptr %buf.addr, align 8
  %arrayidx1 = getelementptr inbounds i8, ptr %2, i64 2
  %3 = load i8, ptr %arrayidx1, align 1
  %conv2 = zext i8 %3 to i32
  %or = or i32 %shl, %conv2
  %shl3 = shl i32 %or, 16
  %4 = load ptr, ptr %buf.addr, align 8
  %arrayidx4 = getelementptr inbounds i8, ptr %4, i64 1
  %5 = load i8, ptr %arrayidx4, align 1
  %conv5 = zext i8 %5 to i32
  %shl6 = shl i32 %conv5, 8
  %6 = load ptr, ptr %buf.addr, align 8
  %arrayidx7 = getelementptr inbounds i8, ptr %6, i64 0
  %7 = load i8, ptr %arrayidx7, align 1
  %conv8 = zext i8 %7 to i32
  %or9 = or i32 %shl6, %conv8
  %or10 = or i32 %shl3, %or9
  store i32 %or10, ptr %t, align 4
  %8 = load i32, ptr %t, align 4
  %9 = load ptr, ptr %buf.addr, align 8
  store i32 %8, ptr %9, align 4
  %10 = load ptr, ptr %buf.addr, align 8
  %add.ptr = getelementptr inbounds i8, ptr %10, i64 4
  store ptr %add.ptr, ptr %buf.addr, align 8
  br label %do.cond

do.cond:                                          ; preds = %do.body
  %11 = load i32, ptr %longs.addr, align 4
  %dec = add i32 %11, -1
  store i32 %dec, ptr %longs.addr, align 4
  %tobool = icmp ne i32 %dec, 0
  br i1 %tobool, label %do.body, label %do.end, !llvm.loop !6

do.end:                                           ; preds = %do.cond
  ret void
}

; Function Attrs: mustprogress uwtable
define void @_ZN8facebook5velox6crypto10MD5Context9MD5UpdateEPKhy(ptr noundef nonnull align 4 dereferenceable(88) %this, ptr noundef %input, i64 noundef %len) #1 align 2 {
entry:
  %this.addr = alloca ptr, align 8
  %input.addr = alloca ptr, align 8
  %len.addr = alloca i64, align 8
  %t = alloca i32, align 4
  %p = alloca ptr, align 8
  store ptr %this, ptr %this.addr, align 8
  store ptr %input, ptr %input.addr, align 8
  store i64 %len, ptr %len.addr, align 8
  %this1 = load ptr, ptr %this.addr, align 8
  %bits = getelementptr inbounds %"class.facebook::velox::crypto::MD5Context", ptr %this1, i32 0, i32 1
  %arrayidx = getelementptr inbounds [2 x i32], ptr %bits, i64 0, i64 0
  %0 = load i32, ptr %arrayidx, align 4
  store i32 %0, ptr %t, align 4
  %1 = load i32, ptr %t, align 4
  %2 = load i64, ptr %len.addr, align 8
  %conv = trunc i64 %2 to i32
  %shl = shl i32 %conv, 3
  %add = add i32 %1, %shl
  %bits2 = getelementptr inbounds %"class.facebook::velox::crypto::MD5Context", ptr %this1, i32 0, i32 1
  %arrayidx3 = getelementptr inbounds [2 x i32], ptr %bits2, i64 0, i64 0
  store i32 %add, ptr %arrayidx3, align 4
  %3 = load i32, ptr %t, align 4
  %cmp = icmp ult i32 %add, %3
  br i1 %cmp, label %if.then, label %if.end

if.then:                                          ; preds = %entry
  %bits4 = getelementptr inbounds %"class.facebook::velox::crypto::MD5Context", ptr %this1, i32 0, i32 1
  %arrayidx5 = getelementptr inbounds [2 x i32], ptr %bits4, i64 0, i64 1
  %4 = load i32, ptr %arrayidx5, align 4
  %inc = add i32 %4, 1
  store i32 %inc, ptr %arrayidx5, align 4
  br label %if.end

if.end:                                           ; preds = %if.then, %entry
  %5 = load i64, ptr %len.addr, align 8
  %shr = lshr i64 %5, 29
  %bits6 = getelementptr inbounds %"class.facebook::velox::crypto::MD5Context", ptr %this1, i32 0, i32 1
  %arrayidx7 = getelementptr inbounds [2 x i32], ptr %bits6, i64 0, i64 1
  %6 = load i32, ptr %arrayidx7, align 4
  %conv8 = zext i32 %6 to i64
  %add9 = add i64 %conv8, %shr
  %conv10 = trunc i64 %add9 to i32
  store i32 %conv10, ptr %arrayidx7, align 4
  %7 = load i32, ptr %t, align 4
  %shr11 = lshr i32 %7, 3
  %and = and i32 %shr11, 63
  store i32 %and, ptr %t, align 4
  %8 = load i32, ptr %t, align 4
  %tobool = icmp ne i32 %8, 0
  br i1 %tobool, label %if.then12, label %if.end27

if.then12:                                        ; preds = %if.end
  %in = getelementptr inbounds %"class.facebook::velox::crypto::MD5Context", ptr %this1, i32 0, i32 2
  %arraydecay = getelementptr inbounds [64 x i8], ptr %in, i64 0, i64 0
  %9 = load i32, ptr %t, align 4
  %idx.ext = zext i32 %9 to i64
  %add.ptr = getelementptr inbounds i8, ptr %arraydecay, i64 %idx.ext
  store ptr %add.ptr, ptr %p, align 8
  %10 = load i32, ptr %t, align 4
  %sub = sub i32 64, %10
  store i32 %sub, ptr %t, align 4
  %11 = load i64, ptr %len.addr, align 8
  %12 = load i32, ptr %t, align 4
  %conv13 = zext i32 %12 to i64
  %cmp14 = icmp ult i64 %11, %conv13
  br i1 %cmp14, label %if.then15, label %if.end16

if.then15:                                        ; preds = %if.then12
  %13 = load ptr, ptr %p, align 8
  %14 = load ptr, ptr %input.addr, align 8
  %15 = load i64, ptr %len.addr, align 8
  call void @llvm.memcpy.p0.p0.i64(ptr align 1 %13, ptr align 1 %14, i64 %15, i1 false)
  br label %return

if.end16:                                         ; preds = %if.then12
  %16 = load ptr, ptr %p, align 8
  %17 = load ptr, ptr %input.addr, align 8
  %18 = load i32, ptr %t, align 4
  %conv17 = zext i32 %18 to i64
  call void @llvm.memcpy.p0.p0.i64(ptr align 1 %16, ptr align 1 %17, i64 %conv17, i1 false)
  %in18 = getelementptr inbounds %"class.facebook::velox::crypto::MD5Context", ptr %this1, i32 0, i32 2
  %arraydecay19 = getelementptr inbounds [64 x i8], ptr %in18, i64 0, i64 0
  call void @_ZN8facebook5velox6cryptoL11ByteReverseEPhj(ptr noundef %arraydecay19, i32 noundef 16)
  %buf = getelementptr inbounds %"class.facebook::velox::crypto::MD5Context", ptr %this1, i32 0, i32 0
  %arraydecay20 = getelementptr inbounds [4 x i32], ptr %buf, i64 0, i64 0
  %in21 = getelementptr inbounds %"class.facebook::velox::crypto::MD5Context", ptr %this1, i32 0, i32 2
  %arraydecay22 = getelementptr inbounds [64 x i8], ptr %in21, i64 0, i64 0
  call void @_ZN8facebook5velox6cryptoL12MD5TransformEPjPKj(ptr noundef %arraydecay20, ptr noundef %arraydecay22)
  %19 = load i32, ptr %t, align 4
  %20 = load ptr, ptr %input.addr, align 8
  %idx.ext23 = zext i32 %19 to i64
  %add.ptr24 = getelementptr inbounds i8, ptr %20, i64 %idx.ext23
  store ptr %add.ptr24, ptr %input.addr, align 8
  %21 = load i32, ptr %t, align 4
  %conv25 = zext i32 %21 to i64
  %22 = load i64, ptr %len.addr, align 8
  %sub26 = sub i64 %22, %conv25
  store i64 %sub26, ptr %len.addr, align 8
  br label %if.end27

if.end27:                                         ; preds = %if.end16, %if.end
  br label %while.cond

while.cond:                                       ; preds = %while.body, %if.end27
  %23 = load i64, ptr %len.addr, align 8
  %cmp28 = icmp uge i64 %23, 64
  br i1 %cmp28, label %while.body, label %while.end

while.body:                                       ; preds = %while.cond
  %in29 = getelementptr inbounds %"class.facebook::velox::crypto::MD5Context", ptr %this1, i32 0, i32 2
  %arraydecay30 = getelementptr inbounds [64 x i8], ptr %in29, i64 0, i64 0
  %24 = load ptr, ptr %input.addr, align 8
  call void @llvm.memcpy.p0.p0.i64(ptr align 4 %arraydecay30, ptr align 1 %24, i64 64, i1 false)
  %in31 = getelementptr inbounds %"class.facebook::velox::crypto::MD5Context", ptr %this1, i32 0, i32 2
  %arraydecay32 = getelementptr inbounds [64 x i8], ptr %in31, i64 0, i64 0
  call void @_ZN8facebook5velox6cryptoL11ByteReverseEPhj(ptr noundef %arraydecay32, i32 noundef 16)
  %buf33 = getelementptr inbounds %"class.facebook::velox::crypto::MD5Context", ptr %this1, i32 0, i32 0
  %arraydecay34 = getelementptr inbounds [4 x i32], ptr %buf33, i64 0, i64 0
  %in35 = getelementptr inbounds %"class.facebook::velox::crypto::MD5Context", ptr %this1, i32 0, i32 2
  %arraydecay36 = getelementptr inbounds [64 x i8], ptr %in35, i64 0, i64 0
  call void @_ZN8facebook5velox6cryptoL12MD5TransformEPjPKj(ptr noundef %arraydecay34, ptr noundef %arraydecay36)
  %25 = load ptr, ptr %input.addr, align 8
  %add.ptr37 = getelementptr inbounds i8, ptr %25, i64 64
  store ptr %add.ptr37, ptr %input.addr, align 8
  %26 = load i64, ptr %len.addr, align 8
  %sub38 = sub i64 %26, 64
  store i64 %sub38, ptr %len.addr, align 8
  br label %while.cond, !llvm.loop !4

while.end:                                        ; preds = %while.cond
  %in39 = getelementptr inbounds %"class.facebook::velox::crypto::MD5Context", ptr %this1, i32 0, i32 2
  %arraydecay40 = getelementptr inbounds [64 x i8], ptr %in39, i64 0, i64 0
  %27 = load ptr, ptr %input.addr, align 8
  %28 = load i64, ptr %len.addr, align 8
  call void @llvm.memcpy.p0.p0.i64(ptr align 4 %arraydecay40, ptr align 1 %27, i64 %28, i1 false)
  br label %return

return:                                           ; preds = %while.end, %if.then15
  ret void
}