; Function Attrs: mustprogress nofree norecurse nosync nounwind memory(readwrite, inaccessiblemem: none) uwtable
define void @_ZN8facebook5velox6crypto10MD5Context9MD5UpdateEPKhy(ptr nocapture noundef nonnull align 4 dereferenceable(88) %this, ptr nocapture noundef readonly %input, i64 noundef %len) local_unnamed_addr #1 align 2 {
entry:
  %bits = getelementptr inbounds i8, ptr %this, i64 16
  %0 = load i32, ptr %bits, align 4
  %conv = trunc i64 %len to i32
  %shl = shl i32 %conv, 3
  %add = add i32 %0, %shl
  store i32 %add, ptr %bits, align 4
  %cmp = icmp ult i32 %add, %0
  %arrayidx5 = getelementptr inbounds i8, ptr %this, i64 20
  %1 = load i32, ptr %arrayidx5, align 4
  %inc = zext i1 %cmp to i32
  %2 = add i32 %1, %inc
  %shr = lshr i64 %len, 29
  %arrayidx7 = getelementptr inbounds i8, ptr %this, i64 20
  %3 = trunc i64 %shr to i32
  %conv10 = add i32 %2, %3
  store i32 %conv10, ptr %arrayidx7, align 4
  %shr11 = lshr i32 %0, 3
  %and = and i32 %shr11, 63
  %tobool.not = icmp eq i32 %and, 0
  br i1 %tobool.not, label %if.end27, label %if.then12

if.then12:                                        ; preds = %entry
  %in = getelementptr inbounds i8, ptr %this, i64 24
  %idx.ext = zext nneg i32 %and to i64
  %add.ptr = getelementptr inbounds i8, ptr %in, i64 %idx.ext
  %sub = sub nuw nsw i32 64, %and
  %conv13 = zext nneg i32 %sub to i64
  %cmp14 = icmp ugt i64 %conv13, %len
  br i1 %cmp14, label %if.then15, label %if.end16

if.then15:                                        ; preds = %if.then12
  tail call void @llvm.memcpy.p0.p0.i64(ptr nonnull align 1 %add.ptr, ptr align 1 %input, i64 %len, i1 false)
  br label %return

if.end16:                                         ; preds = %if.then12
  tail call void @llvm.memcpy.p0.p0.i64(ptr noundef nonnull align 1 dereferenceable(1) %add.ptr, ptr noundef nonnull align 1 dereferenceable(1) %input, i64 %conv13, i1 false)
  tail call fastcc void @_ZN8facebook5velox6cryptoL12MD5TransformEPjPKj(ptr noundef nonnull %this, ptr noundef nonnull %in)
  %add.ptr24 = getelementptr inbounds i8, ptr %input, i64 %conv13
  %sub26 = sub i64 %len, %conv13
  br label %if.end27

if.end27:                                         ; preds = %if.end16, %entry
  %len.addr.0 = phi i64 [ %sub26, %if.end16 ], [ %len, %entry ]
  %input.addr.0 = phi ptr [ %add.ptr24, %if.end16 ], [ %input, %entry ]
  %cmp2831 = icmp ugt i64 %len.addr.0, 63
  br i1 %cmp2831, label %while.body.lr.ph, label %while.end

while.body.lr.ph:                                 ; preds = %if.end27
  %in29 = getelementptr inbounds i8, ptr %this, i64 24
  br label %while.body

while.body:                                       ; preds = %while.body.lr.ph, %while.body
  %input.addr.133 = phi ptr [ %input.addr.0, %while.body.lr.ph ], [ %add.ptr37, %while.body ]
  %len.addr.132 = phi i64 [ %len.addr.0, %while.body.lr.ph ], [ %sub38, %while.body ]
  tail call void @llvm.memcpy.p0.p0.i64(ptr noundef nonnull align 4 dereferenceable(64) %in29, ptr noundef nonnull align 1 dereferenceable(64) %input.addr.133, i64 64, i1 false)
  tail call fastcc void @_ZN8facebook5velox6cryptoL12MD5TransformEPjPKj(ptr noundef nonnull %this, ptr noundef nonnull %in29)
  %add.ptr37 = getelementptr inbounds i8, ptr %input.addr.133, i64 64
  %sub38 = add i64 %len.addr.132, -64
  %cmp28 = icmp ugt i64 %sub38, 63
  br i1 %cmp28, label %while.body, label %while.end, !llvm.loop !4

while.end:                                        ; preds = %while.body, %if.end27
  %len.addr.1.lcssa = phi i64 [ %len.addr.0, %if.end27 ], [ %sub38, %while.body ]
  %input.addr.1.lcssa = phi ptr [ %input.addr.0, %if.end27 ], [ %add.ptr37, %while.body ]
  %in39 = getelementptr inbounds i8, ptr %this, i64 24
  tail call void @llvm.memcpy.p0.p0.i64(ptr nonnull align 4 %in39, ptr align 1 %input.addr.1.lcssa, i64 %len.addr.1.lcssa, i1 false)
  br label %return

return:                                           ; preds = %while.end, %if.then15
  ret void
}